target datalayout = "e-m:e-p270:32:32-p271:32:32-p272:64:64-i64:64-i128:128-f80:128-n8:16:32:64-S128"
target triple = "x86_64-pc-linux-gnu"

%struct._object = type { i64, ptr }
%"struct.std::_Vector_base" = type { %"struct.std::_Vector_base<int, std::allocator<int>>::_Vector_impl" }
%"struct.std::_Vector_base<int, std::allocator<int>>::_Vector_impl" = type { %"struct.std::_Vector_base<int, std::allocator<int>>::_Vector_impl_data" }
%"struct.std::_Vector_base<int, std::allocator<int>>::_Vector_impl_data" = type { ptr, ptr, ptr }
%"struct.std::_Vector_base.1" = type { %"struct.std::_Vector_base<float, std::allocator<float>>::_Vector_impl" }
%"struct.std::_Vector_base<float, std::allocator<float>>::_Vector_impl" = type { %"struct.std::_Vector_base<float, std::allocator<float>>::_Vector_impl_data" }
%"struct.std::_Vector_base<float, std::allocator<float>>::_Vector_impl_data" = type { ptr, ptr, ptr }

; Function Attrs: inlinehint mustprogress sspstrong uwtable
define internal void @_ZL10_Py_DECREFP7_object(ptr noundef %0) #5 {
  %2 = alloca ptr, align 8
  store ptr %0, ptr %2, align 8, !tbaa !14
  %3 = load ptr, ptr %2, align 8, !tbaa !14
  %4 = getelementptr inbounds nuw %struct._object, ptr %3, i32 0, i32 0
  %5 = load i64, ptr %4, align 8, !tbaa !45
  %6 = add i64 %5, -1
  store i64 %6, ptr %4, align 8, !tbaa !45
  %7 = icmp ne i64 %6, 0
  br i1 %7, label %8, label %9

8:                                                ; preds = %1
  br label %11

9:                                                ; preds = %1
  %10 = load ptr, ptr %2, align 8, !tbaa !14
  call void @_Py_Dealloc(ptr noundef %10)
  br label %11

11:                                               ; preds = %9, %8
  ret void
}

; Function Attrs: inlinehint mustprogress sspstrong uwtable
define internal void @_ZL11_Py_XDECREFP7_object(ptr noundef %0) #5 {
  %2 = alloca ptr, align 8
  store ptr %0, ptr %2, align 8, !tbaa !14
  %3 = load ptr, ptr %2, align 8, !tbaa !14
  %4 = icmp ne ptr %3, null
  br i1 %4, label %5, label %7

5:                                                ; preds = %1
  %6 = load ptr, ptr %2, align 8, !tbaa !14
  call void @_ZL10_Py_DECREFP7_object(ptr noundef %6)
  br label %7

7:                                                ; preds = %5, %1
  ret void
}

; Function Attrs: mustprogress nounwind sspstrong uwtable
define linkonce_odr noundef nonnull align 4 dereferenceable(4) ptr @_ZNKSt6vectorIfSaIfEEixEm(ptr noundef nonnull align 8 dereferenceable(24) %0, i64 noundef %1) #0 comdat align 2 {
  %3 = alloca ptr, align 8
  %4 = alloca i64, align 8
  store ptr %0, ptr %3, align 8, !tbaa !10
  store i64 %1, ptr %4, align 8, !tbaa !16
  %5 = load ptr, ptr %3, align 8
  %6 = getelementptr inbounds nuw %"struct.std::_Vector_base.1", ptr %5, i32 0, i32 0
  %7 = getelementptr inbounds nuw %"struct.std::_Vector_base<float, std::allocator<float>>::_Vector_impl_data", ptr %6, i32 0, i32 0
  %8 = load ptr, ptr %7, align 8, !tbaa !30
  %9 = load i64, ptr %4, align 8, !tbaa !16
  %10 = getelementptr inbounds nuw float, ptr %8, i64 %9
  ret ptr %10
}

; Function Attrs: mustprogress nounwind sspstrong uwtable
define linkonce_odr noundef i64 @_ZNKSt6vectorIfSaIfEE4sizeEv(ptr noundef nonnull align 8 dereferenceable(24) %0) #0 comdat align 2 {
  %2 = alloca ptr, align 8
  store ptr %0, ptr %2, align 8, !tbaa !10
  %3 = load ptr, ptr %2, align 8
  %4 = getelementptr inbounds nuw %"struct.std::_Vector_base.1", ptr %3, i32 0, i32 0
  %5 = getelementptr inbounds nuw %"struct.std::_Vector_base<float, std::allocator<float>>::_Vector_impl_data", ptr %4, i32 0, i32 1
  %6 = load ptr, ptr %5, align 8, !tbaa !27
  %7 = getelementptr inbounds nuw %"struct.std::_Vector_base.1", ptr %3, i32 0, i32 0
  %8 = getelementptr inbounds nuw %"struct.std::_Vector_base<float, std::allocator<float>>::_Vector_impl_data", ptr %7, i32 0, i32 0
  %9 = load ptr, ptr %8, align 8, !tbaa !30
  %10 = ptrtoint ptr %6 to i64
  %11 = ptrtoint ptr %9 to i64
  %12 = sub i64 %10, %11
  %13 = sdiv exact i64 %12, 4
  ret i64 %13
}

; Function Attrs: mustprogress nounwind sspstrong uwtable
define linkonce_odr noundef nonnull align 4 dereferenceable(4) ptr @_ZNKSt6vectorIiSaIiEEixEm(ptr noundef nonnull align 8 dereferenceable(24) %0, i64 noundef %1) #0 comdat align 2 {
  %3 = alloca ptr, align 8
  %4 = alloca i64, align 8
  store ptr %0, ptr %3, align 8, !tbaa !8
  store i64 %1, ptr %4, align 8, !tbaa !16
  %5 = load ptr, ptr %3, align 8
  %6 = getelementptr inbounds nuw %"struct.std::_Vector_base", ptr %5, i32 0, i32 0
  %7 = getelementptr inbounds nuw %"struct.std::_Vector_base<int, std::allocator<int>>::_Vector_impl_data", ptr %6, i32 0, i32 0
  %8 = load ptr, ptr %7, align 8, !tbaa !26
  %9 = load i64, ptr %4, align 8, !tbaa !16
  %10 = getelementptr inbounds nuw i32, ptr %8, i64 %9
  ret ptr %10
}

; Function Attrs: mustprogress nounwind sspstrong uwtable
define linkonce_odr noundef i64 @_ZNKSt6vectorIiSaIiEE4sizeEv(ptr noundef nonnull align 8 dereferenceable(24) %0) #0 comdat align 2 {
  %2 = alloca ptr, align 8
  store ptr %0, ptr %2, align 8, !tbaa !8
  %3 = load ptr, ptr %2, align 8
  %4 = getelementptr inbounds nuw %"struct.std::_Vector_base", ptr %3, i32 0, i32 0
  %5 = getelementptr inbounds nuw %"struct.std::_Vector_base<int, std::allocator<int>>::_Vector_impl_data", ptr %4, i32 0, i32 1
  %6 = load ptr, ptr %5, align 8, !tbaa !23
  %7 = getelementptr inbounds nuw %"struct.std::_Vector_base", ptr %3, i32 0, i32 0
  %8 = getelementptr inbounds nuw %"struct.std::_Vector_base<int, std::allocator<int>>::_Vector_impl_data", ptr %7, i32 0, i32 0
  %9 = load ptr, ptr %8, align 8, !tbaa !26
  %10 = ptrtoint ptr %6 to i64
  %11 = ptrtoint ptr %9 to i64
  %12 = sub i64 %10, %11
  %13 = sdiv exact i64 %12, 4
  ret i64 %13
}

; Function Attrs: mustprogress sspstrong uwtable
define noundef ptr @_Z17get_nns_to_pythonRKSt6vectorIiSaIiEERKS_IfSaIfEEi(ptr noundef nonnull align 8 dereferenceable(24) %0, ptr noundef nonnull align 8 dereferenceable(24) %1, i32 noundef %2) #2 {
  %4 = alloca ptr, align 8
  %5 = alloca ptr, align 8
  %6 = alloca ptr, align 8
  %7 = alloca i32, align 4
  %8 = alloca ptr, align 8
  %9 = alloca ptr, align 8
  %10 = alloca ptr, align 8
  %11 = alloca i64, align 8
  %12 = alloca i32, align 4
  %13 = alloca ptr, align 8
  %14 = alloca i64, align 8
  %15 = alloca ptr, align 8
  store ptr %0, ptr %5, align 8, !tbaa !8
  store ptr %1, ptr %6, align 8, !tbaa !10
  store i32 %2, ptr %7, align 4, !tbaa !12
  call void @llvm.lifetime.start.p0(i64 8, ptr %8) #28
  store ptr null, ptr %8, align 8, !tbaa !14
  call void @llvm.lifetime.start.p0(i64 8, ptr %9) #28
  store ptr null, ptr %9, align 8, !tbaa !14
  call void @llvm.lifetime.start.p0(i64 8, ptr %10) #28
  store ptr null, ptr %10, align 8, !tbaa !14
  %16 = load ptr, ptr %5, align 8, !tbaa !8
  %17 = call noundef i64 @_ZNKSt6vectorIiSaIiEE4sizeEv(ptr noundef nonnull align 8 dereferenceable(24) %16) #28
  %18 = call ptr @PyList_New(i64 noundef %17)
  store ptr %18, ptr %8, align 8, !tbaa !14
  %19 = icmp eq ptr %18, null
  br i1 %19, label %20, label %21

20:                                               ; preds = %3
  br label %102

21:                                               ; preds = %3
  call void @llvm.lifetime.start.p0(i64 8, ptr %11) #28
  store i64 0, ptr %11, align 8, !tbaa !16
  br label %22

22:                                               ; preds = %46, %21
  %23 = load i64, ptr %11, align 8, !tbaa !16
  %24 = load ptr, ptr %5, align 8, !tbaa !8
  %25 = call noundef i64 @_ZNKSt6vectorIiSaIiEE4sizeEv(ptr noundef nonnull align 8 dereferenceable(24) %24) #28
  %26 = icmp ult i64 %23, %25
  br i1 %26, label %28, label %27

27:                                               ; preds = %22
  store i32 3, ptr %12, align 4
  br label %49

28:                                               ; preds = %22
  call void @llvm.lifetime.start.p0(i64 8, ptr %13) #28
  %29 = load ptr, ptr %5, align 8, !tbaa !8
  %30 = load i64, ptr %11, align 8, !tbaa !16
  %31 = call noundef nonnull align 4 dereferenceable(4) ptr @_ZNKSt6vectorIiSaIiEEixEm(ptr noundef nonnull align 8 dereferenceable(24) %29, i64 noundef %30) #28
  %32 = load i32, ptr %31, align 4, !tbaa !12
  %33 = sext i32 %32 to i64
  %34 = call ptr @PyLong_FromLong(i64 noundef %33)
  store ptr %34, ptr %13, align 8, !tbaa !14
  %35 = load ptr, ptr %13, align 8, !tbaa !14
  %36 = icmp eq ptr %35, null
  br i1 %36, label %37, label %38

37:                                               ; preds = %28
  store i32 2, ptr %12, align 4
  br label %43

38:                                               ; preds = %28
  %39 = load ptr, ptr %8, align 8, !tbaa !14
  %40 = load i64, ptr %11, align 8, !tbaa !16
  %41 = load ptr, ptr %13, align 8, !tbaa !14
  %42 = call i32 @PyList_SetItem(ptr noundef %39, i64 noundef %40, ptr noundef %41)
  store i32 0, ptr %12, align 4
  br label %43

43:                                               ; preds = %37, %38
  call void @llvm.lifetime.end.p0(i64 8, ptr %13) #28
  %44 = load i32, ptr %12, align 4
  switch i32 %44, label %49 [
    i32 0, label %45
  ]

45:                                               ; preds = %43
  br label %46

46:                                               ; preds = %45
  %47 = load i64, ptr %11, align 8, !tbaa !16
  %48 = add i64 %47, 1
  store i64 %48, ptr %11, align 8, !tbaa !16
  br label %22, !llvm.loop !18

49:                                               ; preds = %43, %27
  call void @llvm.lifetime.end.p0(i64 8, ptr %11) #28
  %50 = load i32, ptr %12, align 4
  switch i32 %50, label %106 [
    i32 3, label %51
    i32 2, label %102
  ]

51:                                               ; preds = %49
  %52 = load i32, ptr %7, align 4, !tbaa !12
  %53 = icmp ne i32 %52, 0
  br i1 %53, label %56, label %54

54:                                               ; preds = %51
  %55 = load ptr, ptr %8, align 8, !tbaa !14
  store ptr %55, ptr %4, align 8
  store i32 1, ptr %12, align 4
  br label %106

56:                                               ; preds = %51
  %57 = load ptr, ptr %6, align 8, !tbaa !10
  %58 = call noundef i64 @_ZNKSt6vectorIfSaIfEE4sizeEv(ptr noundef nonnull align 8 dereferenceable(24) %57) #28
  %59 = call ptr @PyList_New(i64 noundef %58)
  store ptr %59, ptr %9, align 8, !tbaa !14
  %60 = icmp eq ptr %59, null
  br i1 %60, label %61, label %62

61:                                               ; preds = %56
  br label %102

62:                                               ; preds = %56
  call void @llvm.lifetime.start.p0(i64 8, ptr %14) #28
  store i64 0, ptr %14, align 8, !tbaa !16
  br label %63

63:                                               ; preds = %87, %62
  %64 = load i64, ptr %14, align 8, !tbaa !16
  %65 = load ptr, ptr %6, align 8, !tbaa !10
  %66 = call noundef i64 @_ZNKSt6vectorIfSaIfEE4sizeEv(ptr noundef nonnull align 8 dereferenceable(24) %65) #28
  %67 = icmp ult i64 %64, %66
  br i1 %67, label %69, label %68

68:                                               ; preds = %63
  store i32 6, ptr %12, align 4
  br label %90

69:                                               ; preds = %63
  call void @llvm.lifetime.start.p0(i64 8, ptr %15) #28
  %70 = load ptr, ptr %6, align 8, !tbaa !10
  %71 = load i64, ptr %14, align 8, !tbaa !16
  %72 = call noundef nonnull align 4 dereferenceable(4) ptr @_ZNKSt6vectorIfSaIfEEixEm(ptr noundef nonnull align 8 dereferenceable(24) %70, i64 noundef %71) #28
  %73 = load float, ptr %72, align 4, !tbaa !20
  %74 = fpext nnan ninf nsz arcp contract afn float %73 to double
  %75 = call ptr @PyFloat_FromDouble(double noundef nofpclass(nan inf) %74)
  store ptr %75, ptr %15, align 8, !tbaa !14
  %76 = load ptr, ptr %15, align 8, !tbaa !14
  %77 = icmp eq ptr %76, null
  br i1 %77, label %78, label %79

78:                                               ; preds = %69
  store i32 2, ptr %12, align 4
  br label %84

79:                                               ; preds = %69
  %80 = load ptr, ptr %9, align 8, !tbaa !14
  %81 = load i64, ptr %14, align 8, !tbaa !16
  %82 = load ptr, ptr %15, align 8, !tbaa !14
  %83 = call i32 @PyList_SetItem(ptr noundef %80, i64 noundef %81, ptr noundef %82)
  store i32 0, ptr %12, align 4
  br label %84

84:                                               ; preds = %78, %79
  call void @llvm.lifetime.end.p0(i64 8, ptr %15) #28
  %85 = load i32, ptr %12, align 4
  switch i32 %85, label %90 [
    i32 0, label %86
  ]

86:                                               ; preds = %84
  br label %87

87:                                               ; preds = %86
  %88 = load i64, ptr %14, align 8, !tbaa !16
  %89 = add i64 %88, 1
  store i64 %89, ptr %14, align 8, !tbaa !16
  br label %63, !llvm.loop !22

90:                                               ; preds = %84, %68
  call void @llvm.lifetime.end.p0(i64 8, ptr %14) #28
  %91 = load i32, ptr %12, align 4
  switch i32 %91, label %106 [
    i32 6, label %92
    i32 2, label %102
  ]

92:                                               ; preds = %90
  %93 = load ptr, ptr %8, align 8, !tbaa !14
  %94 = load ptr, ptr %9, align 8, !tbaa !14
  %95 = call ptr (i64, ...) @PyTuple_Pack(i64 noundef 2, ptr noundef %93, ptr noundef %94)
  store ptr %95, ptr %10, align 8, !tbaa !14
  %96 = icmp eq ptr %95, null
  br i1 %96, label %97, label %98

97:                                               ; preds = %92
  br label %102

98:                                               ; preds = %92
  %99 = load ptr, ptr %8, align 8, !tbaa !14
  call void @_ZL11_Py_XDECREFP7_object(ptr noundef %99)
  %100 = load ptr, ptr %9, align 8, !tbaa !14
  call void @_ZL11_Py_XDECREFP7_object(ptr noundef %100)
  %101 = load ptr, ptr %10, align 8, !tbaa !14
  store ptr %101, ptr %4, align 8
  store i32 1, ptr %12, align 4
  br label %106

102:                                              ; preds = %90, %49, %97, %61, %20
  %103 = load ptr, ptr %8, align 8, !tbaa !14
  call void @_ZL11_Py_XDECREFP7_object(ptr noundef %103)
  %104 = load ptr, ptr %9, align 8, !tbaa !14
  call void @_ZL11_Py_XDECREFP7_object(ptr noundef %104)
  %105 = load ptr, ptr %10, align 8, !tbaa !14
  call void @_ZL11_Py_XDECREFP7_object(ptr noundef %105)
  store ptr null, ptr %4, align 8
  store i32 1, ptr %12, align 4
  br label %106

106:                                              ; preds = %102, %98, %90, %54, %49
  call void @llvm.lifetime.end.p0(i64 8, ptr %10) #28
  call void @llvm.lifetime.end.p0(i64 8, ptr %9) #28
  call void @llvm.lifetime.end.p0(i64 8, ptr %8) #28
  %107 = load ptr, ptr %4, align 8
  ret ptr %107
}